target datalayout = "e-m:e-p270:32:32-p271:32:32-p272:64:64-i64:64-i128:128-f80:128-n8:16:32:64-S128"
target triple = "x86_64-pc-linux-gnu"

%"class.vcg::Point3" = type { [3 x float] }

; Function Attrs: mustprogress nounwind uwtable
define linkonce_odr void @_ZN3vcg6Point3IfEC2Efff(ptr noundef nonnull align 4 dereferenceable(12) %0, float noundef %1, float noundef %2, float noundef %3) unnamed_addr #4 comdat align 2 {
  %5 = alloca ptr, align 8
  %6 = alloca float, align 4
  %7 = alloca float, align 4
  %8 = alloca float, align 4
  store ptr %0, ptr %5, align 8
  store float %1, ptr %6, align 4
  store float %2, ptr %7, align 4
  store float %3, ptr %8, align 4
  %9 = load ptr, ptr %5, align 8
  %10 = load float, ptr %6, align 4
  %11 = getelementptr inbounds %"class.vcg::Point3", ptr %9, i32 0, i32 0
  %12 = getelementptr inbounds [3 x float], ptr %11, i64 0, i64 0
  store float %10, ptr %12, align 4
  %13 = load float, ptr %7, align 4
  %14 = getelementptr inbounds %"class.vcg::Point3", ptr %9, i32 0, i32 0
  %15 = getelementptr inbounds [3 x float], ptr %14, i64 0, i64 1
  store float %13, ptr %15, align 4
  %16 = load float, ptr %8, align 4
  %17 = getelementptr inbounds %"class.vcg::Point3", ptr %9, i32 0, i32 0
  %18 = getelementptr inbounds [3 x float], ptr %17, i64 0, i64 2
  store float %16, ptr %18, align 4
  ret void
}

; Function Attrs: mustprogress uwtable
define noundef zeroext i1 @_ZN22EditManipulatorsPlugin6MyPickERKiS1_RN3vcg6Point3IfEEf(ptr noundef nonnull align 8 dereferenceable(304) %0, ptr noundef nonnull align 4 dereferenceable(4) %1, ptr noundef nonnull align 4 dereferenceable(4) %2, ptr noundef nonnull align 4 dereferenceable(12) %3, float noundef %4) #5 align 2 {
  %6 = alloca ptr, align 8
  %7 = alloca ptr, align 8
  %8 = alloca ptr, align 8
  %9 = alloca ptr, align 8
  %10 = alloca float, align 4
  %11 = alloca [3 x double], align 16
  %12 = alloca [16 x double], align 16
  %13 = alloca [16 x double], align 16
  %14 = alloca [4 x i32], align 16
  %15 = alloca %"class.vcg::Point3", align 4
  store ptr %0, ptr %6, align 8
  store ptr %1, ptr %7, align 8
  store ptr %2, ptr %8, align 8
  store ptr %3, ptr %9, align 8
  store float %4, ptr %10, align 4
  %16 = getelementptr inbounds [16 x double], ptr %12, i64 0, i64 0
  call void @glGetDoublev(i32 noundef 2982, ptr noundef %16)
  %17 = getelementptr inbounds [16 x double], ptr %13, i64 0, i64 0
  call void @glGetDoublev(i32 noundef 2983, ptr noundef %17)
  %18 = getelementptr inbounds [4 x i32], ptr %14, i64 0, i64 0
  call void @glGetIntegerv(i32 noundef 2978, ptr noundef %18)
  %19 = load ptr, ptr %7, align 8
  %20 = load i32, ptr %19, align 4
  %21 = sitofp i32 %20 to double
  %22 = load ptr, ptr %8, align 8
  %23 = load i32, ptr %22, align 4
  %24 = sitofp i32 %23 to double
  %25 = load float, ptr %10, align 4
  %26 = fpext float %25 to double
  %27 = getelementptr inbounds [16 x double], ptr %12, i64 0, i64 0
  %28 = getelementptr inbounds [16 x double], ptr %13, i64 0, i64 0
  %29 = getelementptr inbounds [4 x i32], ptr %14, i64 0, i64 0
  %30 = getelementptr inbounds [3 x double], ptr %11, i64 0, i64 0
  %31 = getelementptr inbounds [3 x double], ptr %11, i64 0, i64 1
  %32 = getelementptr inbounds [3 x double], ptr %11, i64 0, i64 2
  %33 = call i32 @gluUnProject(double noundef %21, double noundef %24, double noundef %26, ptr noundef %27, ptr noundef %28, ptr noundef %29, ptr noundef %30, ptr noundef %31, ptr noundef %32)
  %34 = getelementptr inbounds [3 x double], ptr %11, i64 0, i64 0
  %35 = load double, ptr %34, align 16
  %36 = fptrunc double %35 to float
  %37 = getelementptr inbounds [3 x double], ptr %11, i64 0, i64 1
  %38 = load double, ptr %37, align 8
  %39 = fptrunc double %38 to float
  %40 = getelementptr inbounds [3 x double], ptr %11, i64 0, i64 2
  %41 = load double, ptr %40, align 16
  %42 = fptrunc double %41 to float
  call void @_ZN3vcg6Point3IfEC2Efff(ptr noundef nonnull align 4 dereferenceable(12) %15, float noundef %36, float noundef %39, float noundef %42)
  %43 = load ptr, ptr %9, align 8
  call void @llvm.memcpy.p0.p0.i64(ptr align 4 %43, ptr align 4 %15, i64 12, i1 false)
  ret i1 true
}