; Function Attrs: mustprogress uwtable
define noundef zeroext i1 @_ZN22EditManipulatorsPlugin6MyPickERKiS1_RN3vcg6Point3IfEEf(ptr nocapture noundef nonnull readnone align 8 dereferenceable(304) %0, ptr nocapture noundef nonnull readonly align 4 dereferenceable(4) %1, ptr nocapture noundef nonnull readonly align 4 dereferenceable(4) %2, ptr nocapture noundef nonnull writeonly align 4 dereferenceable(12) %3, float noundef %4) local_unnamed_addr #9 align 2 {
  %6 = alloca [3 x double], align 16
  %7 = alloca [16 x double], align 16
  %8 = alloca [16 x double], align 16
  %9 = alloca [4 x i32], align 16
  call void @glGetDoublev(i32 noundef 2982, ptr noundef nonnull %7)
  call void @glGetDoublev(i32 noundef 2983, ptr noundef nonnull %8)
  call void @glGetIntegerv(i32 noundef 2978, ptr noundef nonnull %9)
  %10 = load i32, ptr %1, align 4
  %11 = sitofp i32 %10 to double
  %12 = load i32, ptr %2, align 4
  %13 = sitofp i32 %12 to double
  %14 = fpext float %4 to double
  %15 = getelementptr inbounds i8, ptr %6, i64 8
  %16 = getelementptr inbounds i8, ptr %6, i64 16
  %17 = call i32 @gluUnProject(double noundef %11, double noundef %13, double noundef %14, ptr noundef nonnull %7, ptr noundef nonnull %8, ptr noundef nonnull %9, ptr noundef nonnull %6, ptr noundef nonnull %15, ptr noundef nonnull %16)
  %18 = load double, ptr %16, align 16
  %19 = fptrunc double %18 to float
  %20 = load <2 x double>, ptr %6, align 16
  %21 = fptrunc <2 x double> %20 to <2 x float>
  store <2 x float> %21, ptr %3, align 4
  %.sroa.3.0..sroa_idx = getelementptr inbounds i8, ptr %3, i64 8
  store float %19, ptr %.sroa.3.0..sroa_idx, align 4
  ret i1 true
}